target datalayout = "e-m:e-p270:32:32-p271:32:32-p272:64:64-i64:64-i128:128-f80:128-n8:16:32:64-S128"
target triple = "x86_64-pc-linux-gnu"

%union.pthread_mutex_t = type { %struct.__pthread_mutex_s }
%struct.__pthread_mutex_s = type { i32, i32, i32, i32, i32, i16, i16, %struct.__pthread_internal_list }
%struct.__pthread_internal_list = type { ptr, ptr }

@GC_allocate_ml = internal global %union.pthread_mutex_t zeroinitializer, align 8
@GC_on_abort = global ptr @GC_default_on_abort, align 8
@GC_collecting = internal global i8 0, align 1
@GC_nprocs = internal global i32 1, align 4
@.str.340 = private unnamed_addr constant [44 x i8] c"Unexpected error from pthread_mutex_trylock\00", align 1

; Function Attrs: nounwind uwtable
define internal void @GC_pause() #0 {
  %1 = alloca i32, align 4
  store i32 0, ptr %1, align 4
  br label %2

2:                                                ; preds = %6, %0
  %3 = load i32, ptr %1, align 4
  %4 = icmp slt i32 %3, 10
  br i1 %4, label %5, label %9

5:                                                ; preds = %2
  fence syncscope("singlethread") seq_cst
  br label %6

6:                                                ; preds = %5
  %7 = load i32, ptr %1, align 4
  %8 = add nsw i32 %7, 1
  store i32 %8, ptr %1, align 4
  br label %2, !llvm.loop !262

9:                                                ; preds = %2
  ret void
}

; Function Attrs: nounwind uwtable
define internal void @GC_generic_lock(ptr noundef %0) #0 {
  %2 = alloca ptr, align 8
  %3 = alloca i32, align 4
  %4 = alloca i32, align 4
  store ptr %0, ptr %2, align 8
  store i32 1, ptr %3, align 4
  %5 = load ptr, ptr %2, align 8
  %6 = call i32 @pthread_mutex_trylock(ptr noundef %5) #18
  %7 = icmp eq i32 0, %6
  %8 = zext i1 %7 to i32
  %9 = sext i32 %8 to i64
  %10 = icmp ne i64 %9, 0
  br i1 %10, label %11, label %12

11:                                               ; preds = %1
  br label %39

12:                                               ; preds = %1
  br label %13

13:                                               ; preds = %33, %12
  %14 = load i32, ptr %3, align 4
  %15 = icmp ule i32 %14, 128
  br i1 %15, label %16, label %36

16:                                               ; preds = %13
  store i32 0, ptr %4, align 4
  br label %17

17:                                               ; preds = %22, %16
  %18 = load i32, ptr %4, align 4
  %19 = load i32, ptr %3, align 4
  %20 = icmp ult i32 %18, %19
  br i1 %20, label %21, label %25

21:                                               ; preds = %17
  call void @GC_pause()
  br label %22

22:                                               ; preds = %21
  %23 = load i32, ptr %4, align 4
  %24 = add i32 %23, 1
  store i32 %24, ptr %4, align 4
  br label %17, !llvm.loop !260

25:                                               ; preds = %17
  %26 = load ptr, ptr %2, align 8
  %27 = call i32 @pthread_mutex_trylock(ptr noundef %26) #18
  switch i32 %27, label %30 [
    i32 0, label %28
    i32 16, label %29
  ]

28:                                               ; preds = %25
  br label %39

29:                                               ; preds = %25
  br label %32

30:                                               ; preds = %25
  %31 = load ptr, ptr @GC_on_abort, align 8
  call void %31(ptr noundef @.str.340)
  call void @abort() #20
  unreachable

32:                                               ; preds = %29
  br label %33

33:                                               ; preds = %32
  %34 = load i32, ptr %3, align 4
  %35 = shl i32 %34, 1
  store i32 %35, ptr %3, align 4
  br label %13, !llvm.loop !261

36:                                               ; preds = %13
  %37 = load ptr, ptr %2, align 8
  %38 = call i32 @pthread_mutex_lock(ptr noundef %37) #18
  br label %39

39:                                               ; preds = %36, %28, %11
  ret void
}

; Function Attrs: nounwind uwtable
define internal void @GC_lock() #0 {
  %1 = alloca i8, align 1
  %2 = load i32, ptr @GC_nprocs, align 4
  %3 = icmp eq i32 1, %2
  br i1 %3, label %9, label %4

4:                                                ; preds = %0
  %5 = load atomic volatile i8, ptr @GC_collecting monotonic, align 1
  store i8 %5, ptr %1, align 1
  %6 = load i8, ptr %1, align 1
  %7 = zext i8 %6 to i32
  %8 = icmp ne i32 %7, 0
  br i1 %8, label %9, label %11

9:                                                ; preds = %4, %0
  %10 = call i32 @pthread_mutex_lock(ptr noundef @GC_allocate_ml) #18
  br label %12

11:                                               ; preds = %4
  call void @GC_generic_lock(ptr noundef @GC_allocate_ml)
  br label %12

12:                                               ; preds = %11, %9
  ret void
}