; Function Attrs: nounwind uwtable
define internal fastcc void @GC_lock() unnamed_addr #1 {
  %1 = load i32, ptr @GC_nprocs, align 4
  %2 = icmp eq i32 %1, 1
  br i1 %2, label %GC_generic_lock.exit.sink.split, label %3

3:                                                ; preds = %0
  %4 = load atomic volatile i8, ptr @GC_collecting monotonic, align 1
  %.not = icmp eq i8 %4, 0
  br i1 %.not, label %5, label %GC_generic_lock.exit.sink.split

5:                                                ; preds = %3
  %6 = tail call i32 @pthread_mutex_trylock(ptr noundef nonnull @GC_allocate_ml) #41
  %7 = icmp eq i32 %6, 0
  br i1 %7, label %GC_generic_lock.exit, label %.preheader.i

.preheader.i:                                     ; preds = %5, %11
  %.079.i = phi i32 [ %12, %11 ], [ 1, %5 ]
  fence syncscope("singlethread") seq_cst
  %8 = tail call i32 @pthread_mutex_trylock(ptr noundef nonnull @GC_allocate_ml) #41
  switch i32 %8, label %9 [
    i32 0, label %GC_generic_lock.exit
    i32 16, label %11
  ]

9:                                                ; preds = %.preheader.i
  %10 = load ptr, ptr @GC_on_abort, align 8
  tail call void %10(ptr noundef nonnull @.str.340) #41
  tail call void @abort() #47
  unreachable

11:                                               ; preds = %.preheader.i
  %12 = shl nuw nsw i32 %.079.i, 1
  %13 = icmp samesign ult i32 %.079.i, 65
  br i1 %13, label %.preheader.i, label %GC_generic_lock.exit.sink.split, !llvm.loop !4

GC_generic_lock.exit.sink.split:                  ; preds = %11, %0, %3
  %14 = tail call i32 @pthread_mutex_lock(ptr noundef nonnull @GC_allocate_ml) #41
  br label %GC_generic_lock.exit

GC_generic_lock.exit:                             ; preds = %.preheader.i, %GC_generic_lock.exit.sink.split, %5
  ret void
}